target datalayout = "e-m:e-p270:32:32-p271:32:32-p272:64:64-i64:64-i128:128-f80:128-n8:16:32:64-S128"
target triple = "x86_64-pc-linux-gnu"

%struct.quic_pkt_hdr_st = type { i32, i32, %struct.quic_conn_id_st, %struct.quic_conn_id_st, [4 x i8], ptr, i64, i64, ptr }
%struct.quic_conn_id_st = type { i8, [20 x i8] }

; Function Attrs: nounwind uwtable
define i32 @ossl_quic_validate_retry_integrity_tag(ptr noundef %0, ptr noundef %1, ptr noundef %2, ptr noundef %3) #0 {
  %5 = alloca i32, align 4
  %6 = alloca ptr, align 8
  %7 = alloca ptr, align 8
  %8 = alloca ptr, align 8
  %9 = alloca ptr, align 8
  %10 = alloca [16 x i8], align 16
  %11 = alloca ptr, align 8
  %12 = alloca i32, align 4
  store ptr %0, ptr %6, align 8, !tbaa !8
  store ptr %1, ptr %7, align 8, !tbaa !10
  store ptr %2, ptr %8, align 8, !tbaa !37
  store ptr %3, ptr %9, align 8, !tbaa !63
  call void @llvm.lifetime.start.p0(i64 16, ptr %10) #7
  call void @llvm.lifetime.start.p0(i64 8, ptr %11) #7
  %13 = load ptr, ptr %8, align 8, !tbaa !37
  %14 = icmp eq ptr %13, null
  br i1 %14, label %20, label %15

15:                                               ; preds = %4
  %16 = load ptr, ptr %8, align 8, !tbaa !37
  %17 = getelementptr inbounds nuw %struct.quic_pkt_hdr_st, ptr %16, i32 0, i32 7
  %18 = load i64, ptr %17, align 8, !tbaa !48
  %19 = icmp ult i64 %18, 16
  br i1 %19, label %20, label %21

20:                                               ; preds = %15, %4
  store i32 0, ptr %5, align 4
  store i32 1, ptr %12, align 4
  br label %45

21:                                               ; preds = %15
  %22 = load ptr, ptr %6, align 8, !tbaa !8
  %23 = load ptr, ptr %7, align 8, !tbaa !10
  %24 = load ptr, ptr %8, align 8, !tbaa !37
  %25 = load ptr, ptr %9, align 8, !tbaa !63
  %26 = getelementptr inbounds [16 x i8], ptr %10, i64 0, i64 0
  %27 = call i32 @ossl_quic_calculate_retry_integrity_tag(ptr noundef %22, ptr noundef %23, ptr noundef %24, ptr noundef %25, ptr noundef %26)
  %28 = icmp ne i32 %27, 0
  br i1 %28, label %30, label %29

29:                                               ; preds = %21
  store i32 0, ptr %5, align 4
  store i32 1, ptr %12, align 4
  br label %45

30:                                               ; preds = %21
  %31 = load ptr, ptr %8, align 8, !tbaa !37
  %32 = getelementptr inbounds nuw %struct.quic_pkt_hdr_st, ptr %31, i32 0, i32 8
  %33 = load ptr, ptr %32, align 8, !tbaa !49
  %34 = load ptr, ptr %8, align 8, !tbaa !37
  %35 = getelementptr inbounds nuw %struct.quic_pkt_hdr_st, ptr %34, i32 0, i32 7
  %36 = load i64, ptr %35, align 8, !tbaa !48
  %37 = getelementptr inbounds nuw i8, ptr %33, i64 %36
  %38 = getelementptr inbounds i8, ptr %37, i64 -16
  store ptr %38, ptr %11, align 8, !tbaa !10
  %39 = getelementptr inbounds [16 x i8], ptr %10, i64 0, i64 0
  %40 = load ptr, ptr %11, align 8, !tbaa !10
  %41 = call i32 @CRYPTO_memcmp(ptr noundef %39, ptr noundef %40, i64 noundef 16)
  %42 = icmp ne i32 %41, 0
  %43 = xor i1 %42, true
  %44 = zext i1 %43 to i32
  store i32 %44, ptr %5, align 4
  store i32 1, ptr %12, align 4
  br label %45

45:                                               ; preds = %30, %29, %20
  call void @llvm.lifetime.end.p0(i64 8, ptr %11) #7
  call void @llvm.lifetime.end.p0(i64 16, ptr %10) #7
  %46 = load i32, ptr %5, align 4
  ret i32 %46
}