; Function Attrs: nounwind uwtable
define range(i32 0, 2) i32 @ossl_quic_validate_retry_integrity_tag(ptr noundef %0, ptr noundef %1, ptr noundef readonly captures(address_is_null) %2, ptr noundef %3) local_unnamed_addr #0 {
  %5 = alloca [16 x i8], align 16
  call void @llvm.lifetime.start.p0(i64 16, ptr nonnull %5) #10
  %6 = icmp eq ptr %2, null
  br i1 %6, label %21, label %7

7:                                                ; preds = %4
  %8 = getelementptr inbounds nuw i8, ptr %2, i64 72
  %9 = load i64, ptr %8, align 8, !tbaa !37
  %10 = icmp ult i64 %9, 16
  br i1 %10, label %21, label %11

11:                                               ; preds = %7
  %12 = call i32 @ossl_quic_calculate_retry_integrity_tag(ptr noundef %0, ptr noundef %1, ptr noundef nonnull %2, ptr noundef %3, ptr noundef nonnull %5)
  %.not = icmp eq i32 %12, 0
  br i1 %.not, label %21, label %13

13:                                               ; preds = %11
  %14 = getelementptr inbounds nuw i8, ptr %2, i64 80
  %15 = load ptr, ptr %14, align 8, !tbaa !38
  %16 = load i64, ptr %8, align 8, !tbaa !37
  %17 = getelementptr inbounds nuw i8, ptr %15, i64 %16
  %18 = getelementptr inbounds i8, ptr %17, i64 -16
  %19 = call i32 @CRYPTO_memcmp(ptr noundef nonnull %5, ptr noundef nonnull %18, i64 noundef 16) #10
  %.not10 = icmp eq i32 %19, 0
  %20 = zext i1 %.not10 to i32
  br label %21

21:                                               ; preds = %11, %4, %7, %13
  %.0 = phi i32 [ %20, %13 ], [ 0, %7 ], [ 0, %4 ], [ 0, %11 ]
  call void @llvm.lifetime.end.p0(i64 16, ptr nonnull %5) #10
  ret i32 %.0
}